target datalayout = "e-m:e-p270:32:32-p271:32:32-p272:64:64-i64:64-i128:128-f80:128-n8:16:32:64-S128"
target triple = "x86_64-pc-linux-gnu"

; Function Attrs: mustprogress nounwind uwtable
define noundef i32 @_Z14readExifUint32PKhmmb(ptr noundef %0, i64 noundef %1, i64 noundef %2, i1 noundef zeroext %3) #7 {
  %5 = alloca i32, align 4
  %6 = alloca ptr, align 8
  %7 = alloca i64, align 8
  %8 = alloca i64, align 8
  %9 = alloca i8, align 1
  store ptr %0, ptr %6, align 8, !tbaa !3
  store i64 %1, ptr %7, align 8, !tbaa !58
  store i64 %2, ptr %8, align 8, !tbaa !58
  %10 = zext i1 %3 to i8
  store i8 %10, ptr %9, align 1, !tbaa !64
  %11 = load i64, ptr %8, align 8, !tbaa !58
  %12 = add i64 %11, 4
  %13 = load i64, ptr %7, align 8, !tbaa !58
  %14 = icmp ugt i64 %12, %13
  br i1 %14, label %15, label %16

15:                                               ; preds = %4
  store i32 0, ptr %5, align 4
  br label %81

16:                                               ; preds = %4
  %17 = load i8, ptr %9, align 1, !tbaa !64, !range !48, !noundef !49
  %18 = trunc i8 %17 to i1
  br i1 %18, label %19, label %50

19:                                               ; preds = %16
  %20 = load ptr, ptr %6, align 8, !tbaa !3
  %21 = load i64, ptr %8, align 8, !tbaa !58
  %22 = add i64 %21, 0
  %23 = getelementptr inbounds nuw i8, ptr %20, i64 %22
  %24 = load i8, ptr %23, align 1, !tbaa !86
  %25 = zext i8 %24 to i32
  %26 = shl i32 %25, 24
  %27 = load ptr, ptr %6, align 8, !tbaa !3
  %28 = load i64, ptr %8, align 8, !tbaa !58
  %29 = add i64 %28, 1
  %30 = getelementptr inbounds nuw i8, ptr %27, i64 %29
  %31 = load i8, ptr %30, align 1, !tbaa !86
  %32 = zext i8 %31 to i32
  %33 = shl i32 %32, 16
  %34 = or i32 %26, %33
  %35 = load ptr, ptr %6, align 8, !tbaa !3
  %36 = load i64, ptr %8, align 8, !tbaa !58
  %37 = add i64 %36, 2
  %38 = getelementptr inbounds nuw i8, ptr %35, i64 %37
  %39 = load i8, ptr %38, align 1, !tbaa !86
  %40 = zext i8 %39 to i32
  %41 = shl i32 %40, 8
  %42 = or i32 %34, %41
  %43 = load ptr, ptr %6, align 8, !tbaa !3
  %44 = load i64, ptr %8, align 8, !tbaa !58
  %45 = add i64 %44, 3
  %46 = getelementptr inbounds nuw i8, ptr %43, i64 %45
  %47 = load i8, ptr %46, align 1, !tbaa !86
  %48 = zext i8 %47 to i32
  %49 = or i32 %42, %48
  store i32 %49, ptr %5, align 4
  br label %81

50:                                               ; preds = %16
  %51 = load ptr, ptr %6, align 8, !tbaa !3
  %52 = load i64, ptr %8, align 8, !tbaa !58
  %53 = add i64 %52, 3
  %54 = getelementptr inbounds nuw i8, ptr %51, i64 %53
  %55 = load i8, ptr %54, align 1, !tbaa !86
  %56 = zext i8 %55 to i32
  %57 = shl i32 %56, 24
  %58 = load ptr, ptr %6, align 8, !tbaa !3
  %59 = load i64, ptr %8, align 8, !tbaa !58
  %60 = add i64 %59, 2
  %61 = getelementptr inbounds nuw i8, ptr %58, i64 %60
  %62 = load i8, ptr %61, align 1, !tbaa !86
  %63 = zext i8 %62 to i32
  %64 = shl i32 %63, 16
  %65 = or i32 %57, %64
  %66 = load ptr, ptr %6, align 8, !tbaa !3
  %67 = load i64, ptr %8, align 8, !tbaa !58
  %68 = add i64 %67, 1
  %69 = getelementptr inbounds nuw i8, ptr %66, i64 %68
  %70 = load i8, ptr %69, align 1, !tbaa !86
  %71 = zext i8 %70 to i32
  %72 = shl i32 %71, 8
  %73 = or i32 %65, %72
  %74 = load ptr, ptr %6, align 8, !tbaa !3
  %75 = load i64, ptr %8, align 8, !tbaa !58
  %76 = add i64 %75, 0
  %77 = getelementptr inbounds nuw i8, ptr %74, i64 %76
  %78 = load i8, ptr %77, align 1, !tbaa !86
  %79 = zext i8 %78 to i32
  %80 = or i32 %73, %79
  store i32 %80, ptr %5, align 4
  br label %81

81:                                               ; preds = %50, %19, %15
  %82 = load i32, ptr %5, align 4
  ret i32 %82
}