; Function Attrs: mustprogress nofree norecurse nosync nounwind willreturn memory(argmem: read) uwtable
define noundef i32 @_Z14readExifUint32PKhmmb(ptr noundef readonly captures(none) %0, i64 noundef %1, i64 noundef %2, i1 noundef zeroext %3) local_unnamed_addr #15 {
  %5 = add i64 %2, 4
  %6 = icmp ugt i64 %5, %1
  br i1 %6, label %29, label %7

7:                                                ; preds = %4
  %8 = getelementptr i8, ptr %0, i64 %2
  br i1 %3, label %9, label %27

9:                                                ; preds = %7
  %10 = load i8, ptr %8, align 1, !tbaa !32
  %11 = zext i8 %10 to i32
  %12 = shl nuw i32 %11, 24
  %13 = getelementptr i8, ptr %8, i64 1
  %14 = load i8, ptr %13, align 1, !tbaa !32
  %15 = zext i8 %14 to i32
  %16 = shl nuw nsw i32 %15, 16
  %17 = or disjoint i32 %16, %12
  %18 = getelementptr i8, ptr %8, i64 2
  %19 = load i8, ptr %18, align 1, !tbaa !32
  %20 = zext i8 %19 to i32
  %21 = shl nuw nsw i32 %20, 8
  %22 = or disjoint i32 %17, %21
  %23 = getelementptr i8, ptr %8, i64 3
  %24 = load i8, ptr %23, align 1, !tbaa !32
  %25 = zext i8 %24 to i32
  %26 = or disjoint i32 %22, %25
  br label %29

27:                                               ; preds = %7
  %28 = load i32, ptr %8, align 1
  br label %29

29:                                               ; preds = %4, %27, %9
  %.0 = phi i32 [ %26, %9 ], [ %28, %27 ], [ 0, %4 ]
  ret i32 %.0
}